Certificate:
    Data:
        Version: 3 (0x2)
        Serial Number: 1 (0x1)
    Signature Algorithm: sha256WithRSAEncryption
        Issuer: CN=smail.pwr.edu.pl, ST=Lower Silesia, C=PL/emailAddress=smail@pwr.edu.pl, O=Politechnika Wroc\xC3\x85\xC2\x82awska Dev, OU=Development
        Validity
            Not Before: Nov 10 16:21:08 2018 GMT
            Not After : Nov  9 16:21:08 2023 GMT
        Subject: CN=localhost, ST=Lower Silesia, C=PL/emailAddress=smail.pwr.edu.pl, O=Poczta Studencka, OU=Poczta Studencka Dev
        Subject Public Key Info:
            Public Key Algorithm: rsaEncryption
                Public-Key: (2048 bit)
                Modulus:
                    00:9b:52:bc:12:1f:9a:a0:82:e1:25:0e:5e:86:ff:
                    d7:f2:cb:74:00:1b:62:41:97:ea:86:dc:94:af:32:
                    d1:09:dc:c4:48:02:95:89:b6:0a:31:66:fe:b6:88:
                    dd:41:c7:17:5a:fb:3b:01:8f:39:40:90:e1:27:24:
                    7a:f1:3f:dc:91:db:f1:47:d7:79:da:a2:91:ce:7c:
                    55:77:05:86:e9:25:57:ac:12:b7:96:b9:16:94:0d:
                    0a:7e:7a:e1:a4:1c:e1:89:76:ed:d8:b4:54:cc:8b:
                    62:97:b1:33:16:df:2d:9a:78:6f:46:e5:ce:24:86:
                    0b:cc:d1:73:9c:73:b9:2b:0b:87:2c:5a:8c:a6:98:
                    5c:6c:35:21:c5:76:8b:9c:e8:a9:18:a7:f9:c7:57:
                    19:81:24:7d:28:05:90:b9:98:12:83:2a:22:1a:00:
                    23:25:c0:53:00:49:e1:1b:63:52:9b:45:5f:a6:a8:
                    fb:30:99:a0:30:e3:fb:60:a6:9c:51:8a:7e:c0:b3:
                    65:2d:82:55:ce:47:84:ef:e7:c8:04:e6:2f:58:df:
                    6c:ed:ca:c2:f2:cc:61:8e:22:b3:67:41:47:aa:45:
                    33:e1:18:1e:d4:db:82:49:d3:b1:83:b4:81:3f:3c:
                    66:8a:29:fd:4e:5c:64:9d:9d:80:b5:c3:21:2f:c9:
                    d3:d9
                Exponent: 65537 (0x10001)
        X509v3 extensions:
            X509v3 Basic Constraints: 
                CA:FALSE
            X509v3 Key Usage: 
                Digital Signature, Non Repudiation, Key Encipherment
            X509v3 Subject Alternative Name: 
                DNS:localhost, DNS:invoicesmash.local
    Signature Algorithm: sha256WithRSAEncryption
         a1:b1:c9:74:f4:84:e7:16:91:08:47:14:e3:df:1c:ac:d9:fb:
         a9:a0:c1:2c:f6:2f:0f:5a:4f:c1:2b:6e:98:e6:e8:20:b5:c8:
         e8:e6:ea:05:7f:1e:3c:8e:4c:d6:a8:12:63:77:24:ff:1c:d3:
         f4:fa:55:73:d8:ab:bf:5f:ae:70:01:07:3c:6b:83:c8:32:97:
         06:5f:7d:f6:28:75:ba:51:76:67:30:74:9b:83:1d:ba:22:d2:
         0c:9a:f3:44:12:8e:39:26:8b:63:66:8e:e9:18:e4:bd:7d:88:
         4b:61:29:0d:f1:c7:c4:92:2b:03:64:38:49:fb:d1:b4:30:da:
         72:32:09:0a:f4:38:c9:21:09:9f:05:df:22:45:77:12:5f:e6:
         69:c1:2c:9c:48:4b:7a:b9:b2:e7:6c:d6:73:6d:3a:e9:ad:d4:
         c6:e4:7d:0a:ed:d8:2b:e7:13:74:e8:4d:79:41:f4:2a:4c:10:
         f9:85:66:c3:5d:6e:b6:8a:ae:01:fc:37:07:f3:28:b4:2b:14:
         f1:19:39:a1:ba:ce:3a:98:69:e2:85:97:41:b3:1f:74:1e:da:
         08:86:51:98:78:90:9d:4f:26:18:12:e0:51:b1:9b:95:5a:80:
         e6:c8:ac:36:e8:f1:e2:dc:14:5e:4c:68:b7:fc:66:52:1b:49:
         3d:77:c3:ef
-----BEGIN CERTIFICATE-----
MIID9TCCAt2gAwIBAgIBATANBgkqhkiG9w0BAQsFADCBoDEZMBcGA1UEAwwQc21h
aWwucHdyLmVkdS5wbDEWMBQGA1UECAwNTG93ZXIgU2lsZXNpYTELMAkGA1UEBhMC
UEwxHzAdBgkqhkiG9w0BCQEWEHNtYWlsQHB3ci5lZHUucGwxJzAlBgNVBAoMHlBv
bGl0ZWNobmlrYSBXcm9jw4XCgmF3c2thIERldjEUMBIGA1UECwwLRGV2ZWxvcG1l
bnQwHhcNMTgxMTEwMTYyMTA4WhcNMjMxMTA5MTYyMTA4WjCBlDESMBAGA1UEAwwJ
bG9jYWxob3N0MRYwFAYDVQQIDA1Mb3dlciBTaWxlc2lhMQswCQYDVQQGEwJQTDEf
MB0GCSqGSIb3DQEJARYQc21haWwucHdyLmVkdS5wbDEZMBcGA1UECgwQUG9jenRh
IFN0dWRlbmNrYTEdMBsGA1UECwwUUG9jenRhIFN0dWRlbmNrYSBEZXYwggEiMA0G
CSqGSIb3DQEBAQUAA4IBDwAwggEKAoIBAQCbUrwSH5qgguElDl6G/9fyy3QAG2JB
l+qG3JSvMtEJ3MRIApWJtgoxZv62iN1Bxxda+zsBjzlAkOEnJHrxP9yR2/FH13na
opHOfFV3BYbpJVesEreWuRaUDQp+euGkHOGJdu3YtFTMi2KXsTMW3y2aeG9G5c4k
hgvM0XOcc7krC4csWoymmFxsNSHFdouc6KkYp/nHVxmBJH0oBZC5mBKDKiIaACMl
wFMASeEbY1KbRV+mqPswmaAw4/tgppxRin7As2UtglXOR4Tv58gE5i9Y32ztysLy
zGGOIrNnQUeqRTPhGB7U24JJ07GDtIE/PGaKKf1OXGSdnYC1wyEvydPZAgMBAAGj
RDBCMAkGA1UdEwQCMAAwCwYDVR0PBAQDAgXgMCgGA1UdEQQhMB+CCWxvY2FsaG9z
dIISaW52b2ljZXNtYXNoLmxvY2FsMA0GCSqGSIb3DQEBCwUAA4IBAQChscl09ITn
FpEIRxTj3xys2fupoMEs9i8PWk/BK26Y5uggtcjo5uoFfx48jkzWqBJjdyT/HNP0
+lVz2Ku/X65wAQc8a4PIMpcGX332KHW6UXZnMHSbgx26ItIMmvNEEo45JotjZo7p
GOS9fYhLYSkN8cfEkisDZDhJ+9G0MNpyMgkK9DjJIQmfBd8iRXcSX+ZpwSycSEt6
ubLnbNZzbTrprdTG5H0K7dgr5xN06E15QfQqTBD5hWbDXW62iq4B/DcH8yi0KxTx
GTmhus46mGnihZdBsx90HtoIhlGYeJCdTyYYEuBRsZuVWoDmyKw26PHi3BReTGi3
/GZSG0k9d8Pv
-----END CERTIFICATE-----
