Certificate:
    Data:
        Version: 3 (0x2)
        Serial Number: 1 (0x1)
    Signature Algorithm: sha256WithRSAEncryption
        Issuer: CN=MojWspanialyBank Root Certificate Authority, ST=SB, C=PL/emailAddress=mojwspanialy@bank.com, O=MojWspanialyBank, OU=MojWspanialyBank Development
        Validity
            Not Before: Dec 11 09:36:30 2018 GMT
            Not After : Dec 10 09:36:30 2023 GMT
        Subject: CN=ironbankofbraavos, ST=SB, C=PL/emailAddress=ironbank@braavos.com, O=Iron Bank of Braavos, OU=IBB Development
        Subject Public Key Info:
            Public Key Algorithm: rsaEncryption
                Public-Key: (2048 bit)
                Modulus:
                    00:b5:18:ae:53:32:3c:95:bc:2b:a1:68:cf:46:dc:
                    5c:96:db:f4:75:43:29:48:61:11:ac:ea:58:01:3b:
                    c4:0b:cc:5f:d8:70:52:4b:28:bc:48:a7:41:de:a3:
                    0e:ab:23:c1:f9:da:6a:32:e3:48:9c:70:29:84:ea:
                    fb:e1:d5:ff:cf:a0:e5:93:e8:7b:eb:bb:42:04:eb:
                    90:05:b8:9f:59:71:98:de:26:61:7d:6a:8b:32:be:
                    8f:f2:33:b8:82:1c:a2:b1:c5:e8:12:23:84:57:bd:
                    5d:be:65:47:d8:e3:65:6f:81:4b:77:c3:22:a5:4e:
                    ab:ee:6b:93:9c:a7:a4:33:1f:75:2f:8c:93:41:15:
                    01:c2:5d:a1:19:af:d0:65:a7:d9:ac:7b:0b:c9:01:
                    02:1f:f4:25:b0:fe:87:eb:4a:7c:e5:93:0e:83:79:
                    25:41:65:2a:33:30:ce:18:b2:b5:fa:d6:23:88:53:
                    2f:dd:ae:6c:b2:74:c0:62:63:3a:71:f8:b6:22:29:
                    2f:2d:cd:51:29:ab:3e:5d:40:2b:ff:b7:37:89:e6:
                    39:c3:d2:b8:8f:03:3a:e3:cd:3c:9a:00:20:ab:fc:
                    3d:4e:64:46:23:f8:10:8a:1e:e7:49:e3:8a:3b:dc:
                    d9:51:86:ef:0c:14:63:da:6e:73:6f:b7:40:0d:c3:
                    30:a3
                Exponent: 65537 (0x10001)
        X509v3 extensions:
            X509v3 Basic Constraints: 
                CA:FALSE
            X509v3 Key Usage: 
                Digital Signature, Non Repudiation, Key Encipherment
            X509v3 Subject Alternative Name: 
                DNS:localhost, DNS:ironbankofbraavos
    Signature Algorithm: sha256WithRSAEncryption
         6d:cd:bf:50:12:29:a0:6a:17:8b:d6:a8:a0:05:98:a5:5a:68:
         52:da:5b:e3:55:1e:5b:51:bb:b3:e0:52:24:cb:a2:0c:60:d7:
         c6:bd:62:7d:b5:29:93:d5:1a:da:5e:08:e6:4e:8b:0e:38:4d:
         88:13:64:7c:3b:e5:5c:a2:c2:54:19:e5:54:0d:f3:5e:b6:3e:
         40:6e:aa:5b:60:e0:71:6c:cb:81:1c:67:8d:7c:57:c6:6a:05:
         a1:a1:ad:62:37:67:b7:17:49:bb:45:99:94:cc:51:52:4d:1a:
         f9:59:36:c5:a4:fd:d8:31:ef:06:ed:80:ae:42:28:f3:96:8c:
         dc:55:ab:18:50:69:40:85:10:6e:9c:a4:48:be:5d:d3:d8:e1:
         a2:83:70:37:9a:53:f8:10:4a:4e:0d:c9:3b:59:d9:ee:60:9f:
         87:a7:a3:b0:5b:e7:5c:a4:9d:e5:de:25:67:56:8c:4f:46:9e:
         24:7d:4d:c3:1e:d8:3c:97:66:10:58:e8:2f:5a:ac:cc:e5:4f:
         fa:83:bb:bb:0d:ed:44:a9:81:6b:df:5a:aa:a7:dc:79:6a:dc:
         1c:39:fa:f2:53:2f:30:1f:e2:9b:a8:80:df:57:dc:ab:cd:d6:
         9b:c5:bb:68:8c:e1:e7:d3:78:df:96:f8:de:34:84:09:e5:b7:
         98:54:b4:eb
-----BEGIN CERTIFICATE-----
MIIEDDCCAvSgAwIBAgIBATANBgkqhkiG9w0BAQsFADCBuDE0MDIGA1UEAwwrTW9q
V3NwYW5pYWx5QmFuayBSb290IENlcnRpZmljYXRlIEF1dGhvcml0eTELMAkGA1UE
CAwCU0IxCzAJBgNVBAYTAlBMMSQwIgYJKoZIhvcNAQkBFhVtb2p3c3BhbmlhbHlA
YmFuay5jb20xGTAXBgNVBAoMEE1valdzcGFuaWFseUJhbmsxJTAjBgNVBAsMHE1v
aldzcGFuaWFseUJhbmsgRGV2ZWxvcG1lbnQwHhcNMTgxMjExMDkzNjMwWhcNMjMx
MjEwMDkzNjMwWjCBlDEaMBgGA1UEAwwRaXJvbmJhbmtvZmJyYWF2b3MxCzAJBgNV
BAgMAlNCMQswCQYDVQQGEwJQTDEjMCEGCSqGSIb3DQEJARYUaXJvbmJhbmtAYnJh
YXZvcy5jb20xHTAbBgNVBAoMFElyb24gQmFuayBvZiBCcmFhdm9zMRgwFgYDVQQL
DA9JQkIgRGV2ZWxvcG1lbnQwggEiMA0GCSqGSIb3DQEBAQUAA4IBDwAwggEKAoIB
AQC1GK5TMjyVvCuhaM9G3FyW2/R1QylIYRGs6lgBO8QLzF/YcFJLKLxIp0Heow6r
I8H52moy40iccCmE6vvh1f/PoOWT6Hvru0IE65AFuJ9ZcZjeJmF9aosyvo/yM7iC
HKKxxegSI4RXvV2+ZUfY42VvgUt3wyKlTqvua5Ocp6QzH3UvjJNBFQHCXaEZr9Bl
p9msewvJAQIf9CWw/ofrSnzlkw6DeSVBZSozMM4YsrX61iOIUy/drmyydMBiYzpx
+LYiKS8tzVEpqz5dQCv/tzeJ5jnD0riPAzrjzTyaACCr/D1OZEYj+BCKHudJ44o7
3NlRhu8MFGPabnNvt0ANwzCjAgMBAAGjQzBBMAkGA1UdEwQCMAAwCwYDVR0PBAQD
AgXgMCcGA1UdEQQgMB6CCWxvY2FsaG9zdIIRaXJvbmJhbmtvZmJyYWF2b3MwDQYJ
KoZIhvcNAQELBQADggEBAG3Nv1ASKaBqF4vWqKAFmKVaaFLaW+NVHltRu7PgUiTL
ogxg18a9Yn21KZPVGtpeCOZOiw44TYgTZHw75VyiwlQZ5VQN8162PkBuqltg4HFs
y4EcZ418V8ZqBaGhrWI3Z7cXSbtFmZTMUVJNGvlZNsWk/dgx7wbtgK5CKPOWjNxV
qxhQaUCFEG6cpEi+XdPY4aKDcDeaU/gQSk4NyTtZ2e5gn4eno7Bb51ykneXeJWdW
jE9GniR9TcMe2DyXZhBY6C9arMzlT/qDu7sN7USpgWvfWqqn3Hlq3Bw5+vJTLzAf
4puogN9X3KvN1pvFu2iM4efTeN+W+N40hAnlt5hUtOs=
-----END CERTIFICATE-----
